; Function Attrs: mustprogress nofree norecurse nosync nounwind willreturn memory(read, inaccessiblemem: none) uwtable
define noundef zeroext i1 @_ZNK7openvdb5v11_02io8TempFile7is_openEv(ptr nocapture noundef nonnull readonly align 8 dereferenceable(16) %this) local_unnamed_addr #10 align 2 {
entry:
  %mImpl = getelementptr inbounds i8, ptr %this, i64 8
  %0 = load ptr, ptr %mImpl, align 8
  %flags_.i.i = getelementptr inbounds i8, ptr %0, i64 176
  %1 = load i32, ptr %flags_.i.i, align 8
  %and.i.i = and i32 %1, 1
  %cmp.i.i = icmp ne i32 %and.i.i, 0
  ret i1 %cmp.i.i
}